target datalayout = "e-m:e-p270:32:32-p271:32:32-p272:64:64-i64:64-i128:128-f80:128-n8:16:32:64-S128"
target triple = "x86_64-pc-linux-gnu"

%union.pthread_mutex_t = type { %struct.__pthread_mutex_s }
%struct.__pthread_mutex_s = type { i32, i32, i32, i32, i32, i16, i16, %struct.__pthread_internal_list }
%struct.__pthread_internal_list = type { ptr, ptr }
%struct.slurm_bb_ops = type { ptr, ptr, ptr, ptr, ptr, ptr, ptr, ptr, ptr, ptr, ptr, ptr, ptr, ptr, ptr, ptr, ptr, ptr, ptr, ptr }
%struct.timeval = type { i64, i64 }
%struct.job_record = type { i32, ptr, ptr, ptr, ptr, i16, i32, i32, i32, ptr, i32, ptr, ptr, i16, ptr, double, i64, ptr, ptr, ptr, ptr, ptr, ptr, i32, ptr, i32, i64, i64, i32, i32, ptr, i16, i64, i64, i8, i32, ptr, ptr, ptr, ptr, ptr, ptr, ptr, ptr, i32, ptr, ptr, i32, ptr, i32, ptr, i32, ptr, i32, ptr, ptr, ptr, ptr, ptr, ptr, i32, i16, i64, ptr, ptr, ptr, ptr, %struct.acct_policy_limit_set_t, i16, ptr, ptr, ptr, ptr, ptr, i32, ptr, ptr, ptr, ptr, ptr, i32, i32, ptr, ptr, ptr, i16, ptr, ptr, i8, ptr, ptr, i64, i64, i8, i32, i32, i8, i32, ptr, i32, i64, i32, ptr, ptr, ptr, i8, i16, i64, i32, ptr, ptr, ptr, ptr, ptr, i16, i32, ptr, ptr, ptr, ptr, i32, ptr, i32, i16, i64, ptr, i32, i32, ptr, i64, ptr, ptr, i64, i32, i32, i64, i32, i32, ptr, ptr, ptr, ptr, ptr, ptr, ptr, ptr, ptr, ptr, ptr, ptr, i32, ptr, i16, i16, i16, i16, ptr, i32, i32, i8, i64 }
%struct.acct_policy_limit_set_t = type { i16, i16, ptr }

@g_context_lock = internal global %union.pthread_mutex_t zeroinitializer, align 8
@.str.1 = private unnamed_addr constant [29 x i8] c"%s: pthread_mutex_lock(): %m\00", align 1
@g_context_cnt = internal global i32 -1, align 4
@ops = internal global ptr null, align 8
@.str.8 = private unnamed_addr constant [31 x i8] c"%s: pthread_mutex_unlock(): %m\00", align 1
@__func__.bb_g_job_test_post_run = private unnamed_addr constant [23 x i8] c"bb_g_job_test_post_run\00", align 1

; Function Attrs: nounwind uwtable
define dso_local i32 @bb_g_job_test_post_run(ptr noundef %0) #0 {
  %2 = alloca i32, align 4
  %3 = alloca ptr, align 8
  %4 = alloca %struct.timeval, align 8
  %5 = alloca %struct.timeval, align 8
  %6 = alloca [20 x i8], align 16
  %7 = alloca i64, align 8
  %8 = alloca i32, align 4
  %9 = alloca i32, align 4
  %10 = alloca i32, align 4
  %11 = alloca i32, align 4
  %12 = alloca i32, align 4
  %13 = alloca i32, align 4
  store ptr %0, ptr %3, align 8
  call void @llvm.lifetime.start.p0(i64 16, ptr %4) #7
  call void @llvm.lifetime.start.p0(i64 16, ptr %5) #7
  call void @llvm.lifetime.start.p0(i64 20, ptr %6) #7
  call void @llvm.memset.p0.i64(ptr align 16 %6, i8 0, i64 20, i1 false)
  call void @llvm.lifetime.start.p0(i64 8, ptr %7) #7
  call void @llvm.lifetime.start.p0(i64 4, ptr %8) #7
  call void @llvm.lifetime.start.p0(i64 4, ptr %9) #7
  store i32 1, ptr %9, align 4
  call void @llvm.lifetime.start.p0(i64 4, ptr %10) #7
  %14 = call i32 @gettimeofday(ptr noundef %4, ptr noundef null) #7
  %15 = load ptr, ptr %3, align 8
  %16 = getelementptr inbounds nuw %struct.job_record, ptr %15, i32 0, i32 17
  %17 = load ptr, ptr %16, align 8
  %18 = icmp eq ptr %17, null
  br i1 %18, label %27, label %19

19:                                               ; preds = %1
  %20 = load ptr, ptr %3, align 8
  %21 = getelementptr inbounds nuw %struct.job_record, ptr %20, i32 0, i32 17
  %22 = load ptr, ptr %21, align 8
  %23 = getelementptr inbounds i8, ptr %22, i64 0
  %24 = load i8, ptr %23, align 1
  %25 = sext i8 %24 to i32
  %26 = icmp eq i32 %25, 0
  br i1 %26, label %27, label %29

27:                                               ; preds = %19, %1
  %28 = load i32, ptr %9, align 4
  store i32 %28, ptr %2, align 4
  store i32 1, ptr %11, align 4
  br label %82

29:                                               ; preds = %19
  br label %30

30:                                               ; preds = %29
  call void @llvm.lifetime.start.p0(i64 4, ptr %12) #7
  %31 = call i32 @pthread_mutex_lock(ptr noundef @g_context_lock) #7
  store i32 %31, ptr %12, align 4
  %32 = load i32, ptr %12, align 4
  %33 = icmp ne i32 %32, 0
  br i1 %33, label %34, label %37

34:                                               ; preds = %30
  %35 = load i32, ptr %12, align 4
  %36 = call ptr @__errno_location() #8
  store i32 %35, ptr %36, align 4
  call void (ptr, ...) @fatal_abort(ptr noundef @.str.1, ptr noundef @__func__.bb_g_job_test_post_run) #9
  unreachable

37:                                               ; preds = %30
  call void @llvm.lifetime.end.p0(i64 4, ptr %12) #7
  br label %38

38:                                               ; preds = %37
  br label %39

39:                                               ; preds = %38
  store i32 0, ptr %8, align 4
  br label %40

40:                                               ; preds = %62, %39
  %41 = load i32, ptr %8, align 4
  %42 = load i32, ptr @g_context_cnt, align 4
  %43 = icmp slt i32 %41, %42
  br i1 %43, label %44, label %65

44:                                               ; preds = %40
  %45 = load ptr, ptr @ops, align 8
  %46 = load i32, ptr %8, align 4
  %47 = sext i32 %46 to i64
  %48 = getelementptr inbounds %struct.slurm_bb_ops, ptr %45, i64 %47
  %49 = getelementptr inbounds nuw %struct.slurm_bb_ops, ptr %48, i32 0, i32 15
  %50 = load ptr, ptr %49, align 8
  %51 = load ptr, ptr %3, align 8
  %52 = call i32 %50(ptr noundef %51)
  store i32 %52, ptr %10, align 4
  %53 = load i32, ptr %9, align 4
  %54 = load i32, ptr %10, align 4
  %55 = icmp slt i32 %53, %54
  br i1 %55, label %56, label %58

56:                                               ; preds = %44
  %57 = load i32, ptr %9, align 4
  br label %60

58:                                               ; preds = %44
  %59 = load i32, ptr %10, align 4
  br label %60

60:                                               ; preds = %58, %56
  %61 = phi i32 [ %57, %56 ], [ %59, %58 ]
  store i32 %61, ptr %9, align 4
  br label %62

62:                                               ; preds = %60
  %63 = load i32, ptr %8, align 4
  %64 = add nsw i32 %63, 1
  store i32 %64, ptr %8, align 4
  br label %40, !llvm.loop !29

65:                                               ; preds = %40
  br label %66

66:                                               ; preds = %65
  call void @llvm.lifetime.start.p0(i64 4, ptr %13) #7
  %67 = call i32 @pthread_mutex_unlock(ptr noundef @g_context_lock) #7
  store i32 %67, ptr %13, align 4
  %68 = load i32, ptr %13, align 4
  %69 = icmp ne i32 %68, 0
  br i1 %69, label %70, label %73

70:                                               ; preds = %66
  %71 = load i32, ptr %13, align 4
  %72 = call ptr @__errno_location() #8
  store i32 %71, ptr %72, align 4
  call void (ptr, ...) @fatal_abort(ptr noundef @.str.8, ptr noundef @__func__.bb_g_job_test_post_run) #9
  unreachable

73:                                               ; preds = %66
  call void @llvm.lifetime.end.p0(i64 4, ptr %13) #7
  br label %74

74:                                               ; preds = %73
  br label %75

75:                                               ; preds = %74
  br label %76

76:                                               ; preds = %75
  %77 = call i32 @gettimeofday(ptr noundef %5, ptr noundef null) #7
  %78 = getelementptr inbounds [20 x i8], ptr %6, i64 0, i64 0
  call void @slurm_diff_tv_str(ptr noundef %4, ptr noundef %5, ptr noundef %78, i32 noundef 20, ptr noundef @__func__.bb_g_job_test_post_run, i64 noundef 0, ptr noundef %7)
  br label %79

79:                                               ; preds = %76
  br label %80

80:                                               ; preds = %79
  %81 = load i32, ptr %9, align 4
  store i32 %81, ptr %2, align 4
  store i32 1, ptr %11, align 4
  br label %82

82:                                               ; preds = %80, %27
  call void @llvm.lifetime.end.p0(i64 4, ptr %10) #7
  call void @llvm.lifetime.end.p0(i64 4, ptr %9) #7
  call void @llvm.lifetime.end.p0(i64 4, ptr %8) #7
  call void @llvm.lifetime.end.p0(i64 8, ptr %7) #7
  call void @llvm.lifetime.end.p0(i64 20, ptr %6) #7
  call void @llvm.lifetime.end.p0(i64 16, ptr %5) #7
  call void @llvm.lifetime.end.p0(i64 16, ptr %4) #7
  %83 = load i32, ptr %2, align 4
  ret i32 %83
}